(lp0
S'Meaning 1: [auf anmutige Weise] empfindlich, verletzlich, zerbrechlich [wirkend] und daher eine besonders behutsame, vorsichtige, schonende, pflegliche Behandlung verlangend.'
p1
aS'Meaning 2: sehr empfindlich [reagierend], sensibel; mimosenhaft.'
p2
aS'Meaning 3: auf angenehme Weise weich, m\xc3\xbcrbe oder locker, leicht zu kauen, im Mund zergehend oder zerfallend.'
p3
aS'Meaning 4: durch einen niedrigen Grad von Intensit\xc3\xa4t o.\xe2\x80\x82\xc3\x84. die Sinne oder das \xc3\xa4sthetische Empfinden auf angenehm sanfte, milde, leichte Art und Weise reizend, ansprechend.'
p4
aS'Meaning 5: (veraltend) z\xc3\xa4rtlich.'
p5
aS'Meaning 6: zartf\xc3\xbchlend, einf\xc3\xbchlsam, r\xc3\xbccksichtsvoll.'
p6
aS'Meaning 7: zur\xc3\xbcckhaltend, nur angedeutet, nur andeutungsweise, dezent.'
p7
a.